; Function Attrs: nounwind uwtable
define hidden void @zim_SplFileObject_fscanf(ptr nocapture noundef readonly %0, ptr noundef %1) #0 {
  %3 = alloca i32, align 4
  %4 = alloca ptr, align 8
  %5 = alloca ptr, align 8
  store i32 0, ptr %3, align 4
  store ptr null, ptr %5, align 8
  %6 = getelementptr inbounds i8, ptr %0, i64 32
  %7 = load ptr, ptr %6, align 8
  %8 = getelementptr inbounds i8, ptr %7, i64 -384
  %9 = getelementptr inbounds i8, ptr %0, i64 44
  %10 = load i32, ptr %9, align 4
  %11 = call i32 (i32, ptr, ...) @zend_parse_parameters(i32 noundef %10, ptr noundef nonnull @.str.29, ptr noundef nonnull %4, ptr noundef nonnull %5, ptr noundef nonnull %3) #18
  %12 = icmp eq i32 %11, -1
  br i1 %12, label %13, label %16

13:                                               ; preds = %2
  %14 = load ptr, ptr getelementptr inbounds (%struct._zend_executor_globals, ptr @executor_globals, i64 0, i32 50), align 8
  %15 = icmp ne ptr %14, null
  call void @llvm.assume(i1 %15)
  br label %40

16:                                               ; preds = %2
  %17 = getelementptr inbounds i8, ptr %7, i64 -312
  %18 = load ptr, ptr %17, align 8
  %.not = icmp eq ptr %18, null
  br i1 %.not, label %19, label %22

19:                                               ; preds = %16
  call void (ptr, ptr, ...) @zend_throw_error(ptr noundef null, ptr noundef nonnull @.str) #18
  %20 = load ptr, ptr getelementptr inbounds (%struct._zend_executor_globals, ptr @executor_globals, i64 0, i32 50), align 8
  %21 = icmp ne ptr %20, null
  call void @llvm.assume(i1 %21)
  br label %40

22:                                               ; preds = %16
  %23 = getelementptr inbounds i8, ptr %7, i64 -264
  %24 = load ptr, ptr %23, align 8
  %.not.i = icmp ne ptr %24, null
  %25 = zext i1 %.not.i to i64
  %26 = call fastcc noundef i32 @spl_filesystem_file_read_ex(ptr noundef nonnull %8, i1 noundef zeroext false, i64 noundef %25, i1 noundef zeroext false), !range !4
  %27 = icmp eq i32 %26, -1
  br i1 %27, label %28, label %31

28:                                               ; preds = %22
  %29 = load ptr, ptr getelementptr inbounds (%struct._zend_executor_globals, ptr @executor_globals, i64 0, i32 50), align 8
  %30 = icmp ne ptr %29, null
  call void @llvm.assume(i1 %30)
  br label %40

31:                                               ; preds = %22
  %32 = load ptr, ptr %23, align 8
  %33 = load ptr, ptr %4, align 8
  %34 = getelementptr inbounds i8, ptr %33, i64 24
  %35 = load i32, ptr %3, align 4
  %36 = load ptr, ptr %5, align 8
  %37 = call i32 @php_sscanf_internal(ptr noundef %32, ptr noundef nonnull %34, i32 noundef %35, ptr noundef %36, i32 noundef 0, ptr noundef %1) #18
  %38 = icmp eq i32 %37, -3
  br i1 %38, label %39, label %40

39:                                               ; preds = %31
  call void @zend_wrong_param_count() #18
  br label %40

40:                                               ; preds = %39, %31, %28, %19, %13
  ret void
}